; ModuleID = '3/1415.c'
source_filename = "3/1415.c"
target datalayout = "e-m:e-p270:32:32-p271:32:32-p272:64:64-i64:64-f80:128-n8:16:32:64-S128"
target triple = "x86_64-pc-linux-gnu"

@.str = private unnamed_addr constant [5 x i8] c"%d%d\00", align 1
@.str.1 = private unnamed_addr constant [3 x i8] c"%d\00", align 1
@.str.2 = private unnamed_addr constant [3 x i8] c"no\00", align 1
@.str.3 = private unnamed_addr constant [4 x i8] c"yes\00", align 1

; Function Attrs: noinline nounwind uwtable
define dso_local i32 @main() #0 {
  %1 = alloca i32, align 4
  %2 = alloca [1000 x i32], align 16
  %3 = alloca i32, align 4
  %4 = alloca i32, align 4
  %5 = alloca i32, align 4
  %6 = alloca i32, align 4
  %7 = alloca i32, align 4
  %8 = alloca i32, align 4
  %9 = alloca i32, align 4
  %10 = alloca i32, align 4
  %11 = alloca i32, align 4
  %12 = alloca i32, align 4
  store i32 0, i32* %1, align 4
  store i32 0, i32* %6, align 4
  %13 = call i32 (i8*, ...) @__isoc99_scanf(i8* getelementptr inbounds ([5 x i8], [5 x i8]* @.str, i64 0, i64 0), i32* %7, i32* %8)
  store i32 0, i32* %3, align 4
  br label %14

14:                                               ; preds = %23, %0
  %15 = load i32, i32* %3, align 4
  %16 = load i32, i32* %7, align 4
  %17 = icmp slt i32 %15, %16
  br i1 %17, label %18, label %26

18:                                               ; preds = %14
  %19 = load i32, i32* %3, align 4
  %20 = sext i32 %19 to i64
  %21 = getelementptr inbounds [1000 x i32], [1000 x i32]* %2, i64 0, i64 %20
  %22 = call i32 (i8*, ...) @__isoc99_scanf(i8* getelementptr inbounds ([3 x i8], [3 x i8]* @.str.1, i64 0, i64 0), i32* %21)
  br label %23

23:                                               ; preds = %18
  %24 = load i32, i32* %3, align 4
  %25 = add nsw i32 %24, 1
  store i32 %25, i32* %3, align 4
  br label %14

26:                                               ; preds = %14
  store i32 1, i32* %4, align 4
  br label %27

27:                                               ; preds = %72, %26
  %28 = load i32, i32* %4, align 4
  %29 = load i32, i32* %7, align 4
  %30 = icmp sle i32 %28, %29
  br i1 %30, label %31, label %75

31:                                               ; preds = %27
  store i32 0, i32* %5, align 4
  br label %32

32:                                               ; preds = %68, %31
  %33 = load i32, i32* %5, align 4
  %34 = load i32, i32* %7, align 4
  %35 = load i32, i32* %4, align 4
  %36 = sub nsw i32 %34, %35
  %37 = icmp slt i32 %33, %36
  br i1 %37, label %38, label %71

38:                                               ; preds = %32
  %39 = load i32, i32* %5, align 4
  %40 = sext i32 %39 to i64
  %41 = getelementptr inbounds [1000 x i32], [1000 x i32]* %2, i64 0, i64 %40
  %42 = load i32, i32* %41, align 4
  %43 = load i32, i32* %5, align 4
  %44 = add nsw i32 %43, 1
  %45 = sext i32 %44 to i64
  %46 = getelementptr inbounds [1000 x i32], [1000 x i32]* %2, i64 0, i64 %45
  %47 = load i32, i32* %46, align 4
  %48 = icmp sgt i32 %42, %47
  br i1 %48, label %49, label %67

49:                                               ; preds = %38
  %50 = load i32, i32* %5, align 4
  %51 = add nsw i32 %50, 1
  %52 = sext i32 %51 to i64
  %53 = getelementptr inbounds [1000 x i32], [1000 x i32]* %2, i64 0, i64 %52
  %54 = load i32, i32* %53, align 4
  store i32 %54, i32* %9, align 4
  %55 = load i32, i32* %5, align 4
  %56 = sext i32 %55 to i64
  %57 = getelementptr inbounds [1000 x i32], [1000 x i32]* %2, i64 0, i64 %56
  %58 = load i32, i32* %57, align 4
  %59 = load i32, i32* %5, align 4
  %60 = add nsw i32 %59, 1
  %61 = sext i32 %60 to i64
  %62 = getelementptr inbounds [1000 x i32], [1000 x i32]* %2, i64 0, i64 %61
  store i32 %58, i32* %62, align 4
  %63 = load i32, i32* %9, align 4
  %64 = load i32, i32* %5, align 4
  %65 = sext i32 %64 to i64
  %66 = getelementptr inbounds [1000 x i32], [1000 x i32]* %2, i64 0, i64 %65
  store i32 %63, i32* %66, align 4
  br label %67

67:                                               ; preds = %49, %38
  br label %68

68:                                               ; preds = %67
  %69 = load i32, i32* %5, align 4
  %70 = add nsw i32 %69, 1
  store i32 %70, i32* %5, align 4
  br label %32

71:                                               ; preds = %32
  br label %72

72:                                               ; preds = %71
  %73 = load i32, i32* %4, align 4
  %74 = add nsw i32 %73, 1
  store i32 %74, i32* %4, align 4
  br label %27

75:                                               ; preds = %27
  store i32 0, i32* %10, align 4
  br label %76

76:                                               ; preds = %168, %75
  %77 = load i32, i32* %10, align 4
  %78 = load i32, i32* %7, align 4
  %79 = icmp slt i32 %77, %78
  br i1 %79, label %80, label %171

80:                                               ; preds = %76
  %81 = load i32, i32* %10, align 4
  %82 = sext i32 %81 to i64
  %83 = getelementptr inbounds [1000 x i32], [1000 x i32]* %2, i64 0, i64 %82
  %84 = load i32, i32* %83, align 4
  %85 = load i32, i32* %10, align 4
  %86 = sext i32 %85 to i64
  %87 = getelementptr inbounds [1000 x i32], [1000 x i32]* %2, i64 0, i64 %86
  %88 = load i32, i32* %87, align 4
  %89 = add nsw i32 %84, %88
  %90 = load i32, i32* %8, align 4
  %91 = icmp eq i32 %89, %90
  br i1 %91, label %92, label %93

92:                                               ; preds = %80
  store i32 0, i32* %6, align 4
  br label %167

93:                                               ; preds = %80
  %94 = load i32, i32* %10, align 4
  %95 = sext i32 %94 to i64
  %96 = getelementptr inbounds [1000 x i32], [1000 x i32]* %2, i64 0, i64 %95
  %97 = load i32, i32* %96, align 4
  %98 = load i32, i32* %10, align 4
  %99 = sext i32 %98 to i64
  %100 = getelementptr inbounds [1000 x i32], [1000 x i32]* %2, i64 0, i64 %99
  %101 = load i32, i32* %100, align 4
  %102 = add nsw i32 %97, %101
  %103 = load i32, i32* %8, align 4
  %104 = icmp sgt i32 %102, %103
  br i1 %104, label %105, label %128

105:                                              ; preds = %93
  store i32 0, i32* %11, align 4
  br label %106

106:                                              ; preds = %124, %105
  %107 = load i32, i32* %11, align 4
  %108 = load i32, i32* %10, align 4
  %109 = icmp slt i32 %107, %108
  br i1 %109, label %110, label %127

110:                                              ; preds = %106
  %111 = load i32, i32* %10, align 4
  %112 = sext i32 %111 to i64
  %113 = getelementptr inbounds [1000 x i32], [1000 x i32]* %2, i64 0, i64 %112
  %114 = load i32, i32* %113, align 4
  %115 = load i32, i32* %11, align 4
  %116 = sext i32 %115 to i64
  %117 = getelementptr inbounds [1000 x i32], [1000 x i32]* %2, i64 0, i64 %116
  %118 = load i32, i32* %117, align 4
  %119 = add nsw i32 %114, %118
  %120 = load i32, i32* %8, align 4
  %121 = icmp eq i32 %119, %120
  br i1 %121, label %122, label %123

122:                                              ; preds = %110
  store i32 1, i32* %6, align 4
  br label %127

123:                                              ; preds = %110
  br label %124

124:                                              ; preds = %123
  %125 = load i32, i32* %11, align 4
  %126 = add nsw i32 %125, 1
  store i32 %126, i32* %11, align 4
  br label %106

127:                                              ; preds = %122, %106
  br label %166

128:                                              ; preds = %93
  %129 = load i32, i32* %10, align 4
  %130 = sext i32 %129 to i64
  %131 = getelementptr inbounds [1000 x i32], [1000 x i32]* %2, i64 0, i64 %130
  %132 = load i32, i32* %131, align 4
  %133 = load i32, i32* %10, align 4
  %134 = sext i32 %133 to i64
  %135 = getelementptr inbounds [1000 x i32], [1000 x i32]* %2, i64 0, i64 %134
  %136 = load i32, i32* %135, align 4
  %137 = add nsw i32 %132, %136
  %138 = load i32, i32* %8, align 4
  %139 = icmp slt i32 %137, %138
  br i1 %139, label %140, label %165

140:                                              ; preds = %128
  %141 = load i32, i32* %10, align 4
  %142 = add nsw i32 %141, 1
  store i32 %142, i32* %12, align 4
  br label %143

143:                                              ; preds = %161, %140
  %144 = load i32, i32* %12, align 4
  %145 = load i32, i32* %7, align 4
  %146 = icmp sle i32 %144, %145
  br i1 %146, label %147, label %164

147:                                              ; preds = %143
  %148 = load i32, i32* %10, align 4
  %149 = sext i32 %148 to i64
  %150 = getelementptr inbounds [1000 x i32], [1000 x i32]* %2, i64 0, i64 %149
  %151 = load i32, i32* %150, align 4
  %152 = load i32, i32* %12, align 4
  %153 = sext i32 %152 to i64
  %154 = getelementptr inbounds [1000 x i32], [1000 x i32]* %2, i64 0, i64 %153
  %155 = load i32, i32* %154, align 4
  %156 = add nsw i32 %151, %155
  %157 = load i32, i32* %8, align 4
  %158 = icmp eq i32 %156, %157
  br i1 %158, label %159, label %160

159:                                              ; preds = %147
  store i32 1, i32* %6, align 4
  br label %164

160:                                              ; preds = %147
  br label %161

161:                                              ; preds = %160
  %162 = load i32, i32* %12, align 4
  %163 = add nsw i32 %162, 1
  store i32 %163, i32* %12, align 4
  br label %143

164:                                              ; preds = %159, %143
  br label %165

165:                                              ; preds = %164, %128
  br label %166

166:                                              ; preds = %165, %127
  br label %167

167:                                              ; preds = %166, %92
  br label %168

168:                                              ; preds = %167
  %169 = load i32, i32* %10, align 4
  %170 = add nsw i32 %169, 1
  store i32 %170, i32* %10, align 4
  br label %76

171:                                              ; preds = %76
  %172 = load i32, i32* %6, align 4
  %173 = icmp eq i32 %172, 0
  br i1 %173, label %174, label %176

174:                                              ; preds = %171
  %175 = call i32 (i8*, ...) @printf(i8* getelementptr inbounds ([3 x i8], [3 x i8]* @.str.2, i64 0, i64 0))
  br label %178

176:                                              ; preds = %171
  %177 = call i32 (i8*, ...) @printf(i8* getelementptr inbounds ([4 x i8], [4 x i8]* @.str.3, i64 0, i64 0))
  br label %178

178:                                              ; preds = %176, %174
  ret i32 0
}

declare dso_local i32 @__isoc99_scanf(i8*, ...) #1

declare dso_local i32 @printf(i8*, ...) #1


!llvm.module.flags = !{!0}
!llvm.ident = !{!1}

!0 = !{i32 1, !"wchar_size", i32 4}
!1 = !{!"clang version 10.0.0-4ubuntu1 "}
